; Function Attrs: mustprogress uwtable
define hidden noundef zeroext i1 @_ZN11cmd_context9set_logicERK6symbol(ptr noundef nonnull align 8 dereferenceable(872) %this, ptr noundef nonnull align 8 dereferenceable(8) %s) local_unnamed_addr #4 align 2 personality ptr @__gxx_personality_v0 {
entry:
  %m_logic.i = getelementptr inbounds i8, ptr %this, i64 248
  %0 = load ptr, ptr %m_logic.i, align 8
  %1 = load ptr, ptr @_ZN6symbol4nullE, align 8
  %cmp.i.i.not = icmp eq ptr %0, %1
  br i1 %cmp.i.i.not, label %if.end, label %if.then

if.then:                                          ; preds = %entry
  %exception = tail call ptr @__cxa_allocate_exception(i64 48) #25
  invoke void @_ZN13cmd_exceptionC2EPKc(ptr noundef nonnull align 8 dereferenceable(48) %exception, ptr noundef nonnull @.str.25)
          to label %invoke.cont unwind label %lpad

invoke.cont:                                      ; preds = %if.then
  tail call void @__cxa_throw(ptr nonnull %exception, ptr nonnull @_ZTI13cmd_exception, ptr nonnull @_ZN13cmd_exceptionD2Ev) #27
  unreachable

lpad:                                             ; preds = %if.then
  %2 = landingpad { ptr, i32 }
          cleanup
  br label %eh.resume

if.end:                                           ; preds = %entry
  %m_assertions.i = getelementptr inbounds i8, ptr %this, i64 752
  %3 = load ptr, ptr %m_assertions.i, align 8
  %cmp.i.i4 = icmp eq ptr %3, null
  br i1 %cmp.i.i4, label %if.end7, label %_ZNK11cmd_context14has_assertionsEv.exit

_ZNK11cmd_context14has_assertionsEv.exit:         ; preds = %if.end
  %arrayidx.i.i = getelementptr inbounds i8, ptr %3, i64 -4
  %4 = load i32, ptr %arrayidx.i.i, align 4
  %cmp3.i.i.not = icmp eq i32 %4, 0
  br i1 %cmp3.i.i.not, label %if.end7, label %land.lhs.true

land.lhs.true:                                    ; preds = %_ZNK11cmd_context14has_assertionsEv.exit
  %m_main_ctx = getelementptr inbounds i8, ptr %this, i64 240
  %5 = load i8, ptr %m_main_ctx, align 8
  %6 = and i8 %5, 1
  %tobool.not = icmp eq i8 %6, 0
  br i1 %tobool.not, label %if.end7, label %if.then3

if.then3:                                         ; preds = %land.lhs.true
  %exception4 = tail call ptr @__cxa_allocate_exception(i64 48) #25
  invoke void @_ZN13cmd_exceptionC2EPKc(ptr noundef nonnull align 8 dereferenceable(48) %exception4, ptr noundef nonnull @.str.26)
          to label %invoke.cont6 unwind label %lpad5

invoke.cont6:                                     ; preds = %if.then3
  tail call void @__cxa_throw(ptr nonnull %exception4, ptr nonnull @_ZTI13cmd_exception, ptr nonnull @_ZN13cmd_exceptionD2Ev) #27
  unreachable

lpad5:                                            ; preds = %if.then3
  %7 = landingpad { ptr, i32 }
          cleanup
  br label %eh.resume

if.end7:                                          ; preds = %if.end, %land.lhs.true, %_ZNK11cmd_context14has_assertionsEv.exit
  %call8 = tail call noundef zeroext i1 @_ZN10smt_logics15supported_logicERK6symbol(ptr noundef nonnull align 8 dereferenceable(8) %s)
  br i1 %call8, label %if.end10, label %return

if.end10:                                         ; preds = %if.end7
  %8 = load i64, ptr %s, align 8
  store i64 %8, ptr %m_logic.i, align 8
  %m_solver = getelementptr inbounds i8, ptr %this, i64 808
  %9 = load ptr, ptr %m_solver, align 8
  %cmp.i.not = icmp eq ptr %9, null
  br i1 %cmp.i.not, label %if.end13, label %if.then12

if.then12:                                        ; preds = %if.end10
  tail call void @_ZN11cmd_context9mk_solverEv(ptr noundef nonnull align 8 dereferenceable(872) %this)
  br label %if.end13

if.end13:                                         ; preds = %if.then12, %if.end10
  %call14 = tail call noundef zeroext i1 @_ZN10smt_logics20logic_has_reals_onlyERK6symbol(ptr noundef nonnull align 8 dereferenceable(8) %s)
  br i1 %call14, label %if.then15, label %return

if.then15:                                        ; preds = %if.end13
  %m_numeral_as_real = getelementptr inbounds i8, ptr %this, i64 272
  store i8 1, ptr %m_numeral_as_real, align 8
  br label %return

return:                                           ; preds = %if.end13, %if.then15, %if.end7
  ret i1 %call8

eh.resume:                                        ; preds = %lpad5, %lpad
  %exception4.sink = phi ptr [ %exception4, %lpad5 ], [ %exception, %lpad ]
  %.pn = phi { ptr, i32 } [ %7, %lpad5 ], [ %2, %lpad ]
  tail call void @__cxa_free_exception(ptr %exception4.sink) #25
  resume { ptr, i32 } %.pn
}